target datalayout = "e-m:e-p270:32:32-p271:32:32-p272:64:64-i64:64-i128:128-f80:128-n8:16:32:64-S128"
target triple = "x86_64-pc-linux-gnu"

%struct.KDF_SSHKDF = type { ptr, %struct.PROV_DIGEST, ptr, i64, ptr, i64, i8, ptr, i64 }
%struct.PROV_DIGEST = type { ptr, ptr, ptr }

@.str = private unnamed_addr constant [51 x i8] c"../openssl/providers/implementations/kdfs/sshkdf.c\00", align 1

; Function Attrs: nounwind uwtable
define internal void @kdf_sshkdf_reset(ptr noundef %0) #0 {
  %2 = alloca ptr, align 8
  %3 = alloca ptr, align 8
  %4 = alloca ptr, align 8
  store ptr %0, ptr %2, align 8, !tbaa !3
  call void @llvm.lifetime.start.p0(i64 8, ptr %3) #6
  %5 = load ptr, ptr %2, align 8, !tbaa !3
  store ptr %5, ptr %3, align 8, !tbaa !3
  call void @llvm.lifetime.start.p0(i64 8, ptr %4) #6
  %6 = load ptr, ptr %3, align 8, !tbaa !3
  %7 = getelementptr inbounds nuw %struct.KDF_SSHKDF, ptr %6, i32 0, i32 0
  %8 = load ptr, ptr %7, align 8, !tbaa !7
  store ptr %8, ptr %4, align 8, !tbaa !3
  %9 = load ptr, ptr %3, align 8, !tbaa !3
  %10 = getelementptr inbounds nuw %struct.KDF_SSHKDF, ptr %9, i32 0, i32 1
  call void @ossl_prov_digest_reset(ptr noundef %10)
  %11 = load ptr, ptr %3, align 8, !tbaa !3
  %12 = getelementptr inbounds nuw %struct.KDF_SSHKDF, ptr %11, i32 0, i32 2
  %13 = load ptr, ptr %12, align 8, !tbaa !14
  %14 = load ptr, ptr %3, align 8, !tbaa !3
  %15 = getelementptr inbounds nuw %struct.KDF_SSHKDF, ptr %14, i32 0, i32 3
  %16 = load i64, ptr %15, align 8, !tbaa !15
  call void @CRYPTO_clear_free(ptr noundef %13, i64 noundef %16, ptr noundef @.str, i32 noundef 86)
  %17 = load ptr, ptr %3, align 8, !tbaa !3
  %18 = getelementptr inbounds nuw %struct.KDF_SSHKDF, ptr %17, i32 0, i32 4
  %19 = load ptr, ptr %18, align 8, !tbaa !16
  %20 = load ptr, ptr %3, align 8, !tbaa !3
  %21 = getelementptr inbounds nuw %struct.KDF_SSHKDF, ptr %20, i32 0, i32 5
  %22 = load i64, ptr %21, align 8, !tbaa !17
  call void @CRYPTO_clear_free(ptr noundef %19, i64 noundef %22, ptr noundef @.str, i32 noundef 87)
  %23 = load ptr, ptr %3, align 8, !tbaa !3
  %24 = getelementptr inbounds nuw %struct.KDF_SSHKDF, ptr %23, i32 0, i32 7
  %25 = load ptr, ptr %24, align 8, !tbaa !18
  %26 = load ptr, ptr %3, align 8, !tbaa !3
  %27 = getelementptr inbounds nuw %struct.KDF_SSHKDF, ptr %26, i32 0, i32 8
  %28 = load i64, ptr %27, align 8, !tbaa !19
  call void @CRYPTO_clear_free(ptr noundef %25, i64 noundef %28, ptr noundef @.str, i32 noundef 88)
  %29 = load ptr, ptr %3, align 8, !tbaa !3
  call void @llvm.memset.p0.i64(ptr align 8 %29, i8 0, i64 88, i1 false)
  %30 = load ptr, ptr %4, align 8, !tbaa !3
  %31 = load ptr, ptr %3, align 8, !tbaa !3
  %32 = getelementptr inbounds nuw %struct.KDF_SSHKDF, ptr %31, i32 0, i32 0
  store ptr %30, ptr %32, align 8, !tbaa !7
  call void @llvm.lifetime.end.p0(i64 8, ptr %4) #6
  call void @llvm.lifetime.end.p0(i64 8, ptr %3) #6
  ret void
}