; Function Attrs: nounwind uwtable
define internal void @kdf_sshkdf_reset(ptr noundef %0) #0 {
  %2 = load ptr, ptr %0, align 8, !tbaa !3
  %3 = getelementptr inbounds nuw i8, ptr %0, i64 8
  tail call void @ossl_prov_digest_reset(ptr noundef nonnull %3) #6
  %4 = getelementptr inbounds nuw i8, ptr %0, i64 32
  %5 = load ptr, ptr %4, align 8, !tbaa !13
  %6 = getelementptr inbounds nuw i8, ptr %0, i64 40
  %7 = load i64, ptr %6, align 8, !tbaa !14
  tail call void @CRYPTO_clear_free(ptr noundef %5, i64 noundef %7, ptr noundef nonnull @.str, i32 noundef 86) #6
  %8 = getelementptr inbounds nuw i8, ptr %0, i64 48
  %9 = load ptr, ptr %8, align 8, !tbaa !15
  %10 = getelementptr inbounds nuw i8, ptr %0, i64 56
  %11 = load i64, ptr %10, align 8, !tbaa !16
  tail call void @CRYPTO_clear_free(ptr noundef %9, i64 noundef %11, ptr noundef nonnull @.str, i32 noundef 87) #6
  %12 = getelementptr inbounds nuw i8, ptr %0, i64 72
  %13 = load ptr, ptr %12, align 8, !tbaa !17
  %14 = getelementptr inbounds nuw i8, ptr %0, i64 80
  %15 = load i64, ptr %14, align 8, !tbaa !18
  tail call void @CRYPTO_clear_free(ptr noundef %13, i64 noundef %15, ptr noundef nonnull @.str, i32 noundef 88) #6
  %16 = getelementptr inbounds nuw i8, ptr %0, i64 8
  tail call void @llvm.memset.p0.i64(ptr noundef nonnull align 8 dereferenceable(88) %16, i8 0, i64 80, i1 false)
  store ptr %2, ptr %0, align 8, !tbaa !3
  ret void
}